target datalayout = "e-m:e-p270:32:32-p271:32:32-p272:64:64-i64:64-i128:128-f80:128-n8:16:32:64-S128"
target triple = "x86_64-pc-linux-gnu"

@.str.4 = private unnamed_addr constant [43 x i8] c"json: null 'obj' specified to cli_jsonstr\0A\00", align 1
@.str.5 = private unnamed_addr constant [53 x i8] c"json: null string specified as 'key' to cli_jsonstr\0A\00", align 1
@.str.6 = private unnamed_addr constant [52 x i8] c"json: null string specified as 's' to  cli_jsonstr\0A\00", align 1
@.str.7 = private unnamed_addr constant [40 x i8] c"json: no memory for json string object\0A\00", align 1

; Function Attrs: nounwind uwtable
define i32 @cli_jsonstr(ptr noundef %0, ptr noundef %1, ptr noundef %2) #0 {
  %4 = alloca i32, align 4
  %5 = alloca ptr, align 8
  %6 = alloca ptr, align 8
  %7 = alloca ptr, align 8
  %8 = alloca i32, align 4
  %9 = alloca ptr, align 8
  store ptr %0, ptr %5, align 8
  store ptr %1, ptr %6, align 8
  store ptr %2, ptr %7, align 8
  %10 = load ptr, ptr %5, align 8
  %11 = icmp eq ptr null, %10
  br i1 %11, label %12, label %13

12:                                               ; preds = %3
  call void (ptr, ...) @cli_dbgmsg(ptr noundef @.str.4)
  store i32 2, ptr %4, align 4
  br label %55

13:                                               ; preds = %3
  %14 = load ptr, ptr %5, align 8
  %15 = call i32 @json_object_get_type(ptr noundef %14)
  store i32 %15, ptr %8, align 4
  %16 = load i32, ptr %8, align 4
  %17 = icmp eq i32 %16, 4
  br i1 %17, label %18, label %23

18:                                               ; preds = %13
  %19 = load ptr, ptr %6, align 8
  %20 = icmp eq ptr null, %19
  br i1 %20, label %21, label %22

21:                                               ; preds = %18
  call void (ptr, ...) @cli_dbgmsg(ptr noundef @.str.5)
  store i32 2, ptr %4, align 4
  br label %55

22:                                               ; preds = %18
  br label %28

23:                                               ; preds = %13
  %24 = load i32, ptr %8, align 4
  %25 = icmp ne i32 %24, 5
  br i1 %25, label %26, label %27

26:                                               ; preds = %23
  store i32 3, ptr %4, align 4
  br label %55

27:                                               ; preds = %23
  br label %28

28:                                               ; preds = %27, %22
  %29 = load ptr, ptr %7, align 8
  %30 = icmp eq ptr null, %29
  br i1 %30, label %31, label %32

31:                                               ; preds = %28
  call void (ptr, ...) @cli_dbgmsg(ptr noundef @.str.6)
  store i32 2, ptr %4, align 4
  br label %55

32:                                               ; preds = %28
  %33 = load ptr, ptr %7, align 8
  %34 = call ptr @json_object_new_string(ptr noundef %33)
  store ptr %34, ptr %9, align 8
  %35 = load ptr, ptr %9, align 8
  %36 = icmp eq ptr null, %35
  br i1 %36, label %37, label %38

37:                                               ; preds = %32
  call void (ptr, ...) @cli_errmsg(ptr noundef @.str.7)
  store i32 20, ptr %4, align 4
  br label %55

38:                                               ; preds = %32
  %39 = load i32, ptr %8, align 4
  %40 = icmp eq i32 %39, 4
  br i1 %40, label %41, label %46

41:                                               ; preds = %38
  %42 = load ptr, ptr %5, align 8
  %43 = load ptr, ptr %6, align 8
  %44 = load ptr, ptr %9, align 8
  %45 = call i32 @json_object_object_add(ptr noundef %42, ptr noundef %43, ptr noundef %44)
  br label %54

46:                                               ; preds = %38
  %47 = load i32, ptr %8, align 4
  %48 = icmp eq i32 %47, 5
  br i1 %48, label %49, label %53

49:                                               ; preds = %46
  %50 = load ptr, ptr %5, align 8
  %51 = load ptr, ptr %9, align 8
  %52 = call i32 @json_object_array_add(ptr noundef %50, ptr noundef %51)
  br label %53

53:                                               ; preds = %49, %46
  br label %54

54:                                               ; preds = %53, %41
  store i32 0, ptr %4, align 4
  br label %55

55:                                               ; preds = %54, %37, %31, %26, %21, %12
  %56 = load i32, ptr %4, align 4
  ret i32 %56
}