; Function Attrs: nounwind uwtable
define noundef i32 @cli_jsonstr(ptr noundef %0, ptr noundef %1, ptr noundef %2) local_unnamed_addr #0 {
  %4 = icmp eq ptr %0, null
  br i1 %4, label %5, label %6

5:                                                ; preds = %3
  tail call void (ptr, ...) @cli_dbgmsg(ptr noundef nonnull @.str.4) #2
  br label %25

6:                                                ; preds = %3
  %7 = tail call i32 @json_object_get_type(ptr noundef nonnull %0) #2
  %8 = icmp eq i32 %7, 4
  br i1 %8, label %9, label %12

9:                                                ; preds = %6
  %10 = icmp eq ptr %1, null
  br i1 %10, label %11, label %13

11:                                               ; preds = %9
  tail call void (ptr, ...) @cli_dbgmsg(ptr noundef nonnull @.str.5) #2
  br label %25

12:                                               ; preds = %6
  %.not = icmp eq i32 %7, 5
  br i1 %.not, label %13, label %25

13:                                               ; preds = %12, %9
  %14 = icmp eq ptr %2, null
  br i1 %14, label %15, label %16

15:                                               ; preds = %13
  tail call void (ptr, ...) @cli_dbgmsg(ptr noundef nonnull @.str.6) #2
  br label %25

16:                                               ; preds = %13
  %17 = tail call ptr @json_object_new_string(ptr noundef nonnull %2) #2
  %18 = icmp eq ptr %17, null
  br i1 %18, label %19, label %20

19:                                               ; preds = %16
  tail call void (ptr, ...) @cli_errmsg(ptr noundef nonnull @.str.7) #2
  br label %25

20:                                               ; preds = %16
  br i1 %8, label %21, label %23

21:                                               ; preds = %20
  %22 = tail call i32 @json_object_object_add(ptr noundef nonnull %0, ptr noundef %1, ptr noundef nonnull %17) #2
  br label %25

23:                                               ; preds = %20
  %24 = tail call i32 @json_object_array_add(ptr noundef nonnull %0, ptr noundef nonnull %17) #2
  br label %25

25:                                               ; preds = %21, %23, %12, %19, %15, %11, %5
  %.0 = phi i32 [ 2, %5 ], [ 2, %11 ], [ 2, %15 ], [ 20, %19 ], [ 3, %12 ], [ 0, %23 ], [ 0, %21 ]
  ret i32 %.0
}